((dp0
S'game-icf'
p1
S''
p2
sS'dist'
p3
NsS'module_path_append'
p4
NsS'global_path'
p5
S'i:\\program files\\marmalade\\6.3\\examples\\edk'
p6
sS'system_path'
p7
S'i:\\program files\\marmalade\\6.3\\s3e\\makefile_builder'
p8
sS'use_prebuilt'
p9
NsS'amd64'
p10
NsS'line-width'
p11
I80
sS'android-x86'
p12
NsS'disable-runtime-checks'
p13
NsS'release'
p14
NsS'no-make'
p15
NsS'optimise-size'
p16
NsS'output-name-debug'
p17
S'lib/win32/MacAddress_d.dll'
p18
sS'arm-fpu'
p19
g2
sS'psp'
p20
NsS'rvct-version'
p21
S'none'
p22
sS'compiler'
p23
g2
sS'execute'
p24
NsS'compile-static'
p25
NsS'msvc-project'
p26
I01
sS'buildenv'
p27
g2
sS'debug'
p28
NsS'module_path'
p29
NsS'use-release-std-libs'
p30
NsS'using_perforce'
p31
I00
sS'mips-s3e'
p32
NsS'shared-arm-lib'
p33
NsS'arm-cpu'
p34
g2
sS'compile-thumb'
p35
NsS'no-ide'
p36
NsS'msvc-version'
p37
S'6.0'
p38
sS'arm'
p39
NsS'builddir'
p40
g2
sS'compile-debug-as-release'
p41
I0
sS'brief'
p42
NsS'dll'
p43
I1
sS'buildenv-toolset'
p44
g2
sS'version'
p45
NsS'ccache'
p46
I0
sS'offline'
p47
NsS'ios-version'
p48
g2
sS'jobs'
p49
I0
sS'linkflags'
p50
NsS'quick'
p51
NsS'done_defaults'
p52
I1
sS'path'
p53
NsS's3e-data-dir'
p54
g2
sS'enable-exceptions'
p55
NsS'osx-dll'
p56
NsS'extension'
p57
g2
sS'no-vc6'
p58
NsS'non-interactive'
p59
NsS'win32-console'
p60
NsS'nds'
p61
NsS'dist-format'
p62
g2
sS's3e-force-arch'
p63
NsS'dump_defines'
p64
NsS'verbose'
p65
I0
sS'psp-minis'
p66
NsS'gcc-version'
p67
g2
sS'arm-debugger'
p68
g2
sS'use_temp_extension'
p69
NsS'log'
p70
NsS'no-strip'
p71
NsS'rebuild'
p72
NsS'win32-simulator-dll'
p73
NsS'strict'
p74
NsS'enable-global-path'
p75
NsS'iphone'
p76
NsS'cflags'
p77
NsS'dist-dir'
p78
g2
sS'jflags'
p79
NsS'distcc'
p80
NsS'external-compiler'
p81
NsS'no-distcc'
p82
NsS'preinclude'
p83
NsS'using_sdk'
p84
I01
sS'nologo'
p85
NsS'warn-level'
p86
I2
sS'mkb_in'
p87
S'i:/Program Files/Marmalade/6.3/examples/EDK/MacAddress/MacAddress_windows.mkb'
p88
sS'test-config'
p89
g2
sS'list-targets'
p90
NsS'makedeps'
p91
NsS'default-buildenv'
p92
S'vc10'
p93
sS'preprocess-java'
p94
NsS'defines'
p95
NsS'lib'
p96
NsS'global_argv'
p97
(lp98
S'I:\\Program Files\\Marmalade\\6.3\\s3e\\makefile_builder\\mkb.py'
p99
aS'i:/Program Files/Marmalade/6.3/examples/EDK/MacAddress/MacAddress_windows.mkb'
p100
aS'--default-buildenv=vc10'
p101
aS'--msvc-project'
p102
asS'make'
p103
NsS'optimise-speed'
p104
NsS'internal'
p105
NsS'enable-stdinc'
p106
NsS'deploy-only'
p107
NsS'x86'
p108
I1
sS'deploy'
p109
g2
sS'mips'
p110
NsS'incredibuild'
p111
NsS'strict-compile'
p112
NsS'use-auto-subdirs'
p113
NsS'app-icf'
p114
g2
sS'deployargs'
p115
NsS'mkf_in'
p116
(lp117
S'i:\\program files\\marmalade\\6.3\\examples\\edk\\macaddress\\macaddress_build.mkf'
p118
aS'i:\\program files\\marmalade\\6.3\\s3e\\edk\\edk.mkf'
p119
asS'strict-mkb'
p120
NsS'executeargs'
p121
NsS'clean'
p122
NsS'no-asm'
p123
NsS'output-name'
p124
S'lib/win32/MacAddress.dll'
p125
sS'no-modules'
p126
NsS'find_define'
p127
g2
s(dp128
S'i:\\program files\\marmalade\\6.3\\s3e\\makefile_builder\\templates\\xcode4_DeployTool.xcscheme'
p129
F1369749906.0
sS'i:\\program files\\marmalade\\6.3\\s3e\\makefile_builder\\plugins\\MakeEmitter.pyc'
p130
F1369762920.0
sS'i:\\program files\\marmalade\\6.3\\s3e\\makefile_builder\\plugins\\s3e_xcode.pyc'
p131
F1370640446.46875
sS'i:\\program files\\marmalade\\6.3\\s3e\\makefile_builder\\plugins\\SConsEmitter.pyc'
p132
F1369762920.0
sS'i:\\program files\\marmalade\\6.3\\s3e\\makefile_builder\\templates\\gdb_start.txt'
p133
F1369749906.0
sS'i:\\program files\\marmalade\\6.3\\s3e\\makefile_builder\\docs\\options.txt'
p134
F1369749904.0
sS'i:\\program files\\marmalade\\6.3\\s3e\\makefile_builder\\plugins\\s3e_qmake.pyc'
p135
F1370640446.390625
sS'i:\\program files\\marmalade\\6.3\\s3e\\makefile_builder\\templates\\template.opt'
p136
F1369749906.0
sS'i:\\program files\\marmalade\\6.3\\s3e\\makefile_builder\\templates\\make.py'
p137
F1369749906.0
sS'i:\\program files\\marmalade\\6.3\\s3e\\makefile_builder\\mkb_main.pyc'
p138
F1369762920.0
sS'i:\\program files\\marmalade\\6.3\\s3e\\makefile_builder\\docs'
p139
F1370640102.40625
sS'i:\\program files\\marmalade\\6.3\\s3e\\makefile_builder\\templates\\scons.pyc'
p140
F1369762922.0
sS'i:\\program files\\marmalade\\6.3\\s3e\\makefile_builder\\docs\\deprecated.defines.txt'
p141
F1369749904.0
sS'i:\\program files\\marmalade\\6.3\\s3e\\makefile_builder\\templates'
p142
F1370640102.375
sS'i:\\program files\\marmalade\\6.3\\s3e\\makefile_builder\\plugins\\vc7_utils.pyc'
p143
F1369762920.0
sS'i:\\program files\\marmalade\\6.3\\s3e\\makefile_builder\\templates\\template.suo'
p144
F1369749906.0
sS'i:\\program files\\marmalade\\6.3\\s3e\\makefile_builder\\mkb_parser.pyc'
p145
F1369762920.0
sS'i:\\program files\\marmalade\\6.3\\s3e\\makefile_builder\\templates\\rvct_linker_script'
p146
F1369749906.0
sS'i:\\program files\\marmalade\\6.3\\s3e\\makefile_builder\\templates\\qmake_user.py'
p147
F1369749906.0
sS'i:\\program files\\marmalade\\6.3\\s3e\\makefile_builder\\templates\\win32_sln.pyc'
p148
F1369762922.0
sS'i:\\program files\\marmalade\\6.3\\s3e\\makefile_builder\\templates\\vc10_user.pyc'
p149
F1369762922.0
sS'i:\\program files\\marmalade\\6.3\\s3e\\makefile_builder\\templates\\wp8_vcxproj.pyc'
p150
F1369762922.0
sS'i:\\program files\\marmalade\\6.3\\s3e\\makefile_builder\\plugins\\s3e_web.pyc'
p151
F1369762920.0
sS'i:\\program files\\marmalade\\6.3\\s3e\\makefile_builder\\templates\\win32_dsw.pyc'
p152
F1369762920.0
sS'i:\\program files\\marmalade\\6.3\\s3e\\makefile_builder\\docs\\parse_options.pyc'
p153
F1369762922.0
sS'i:\\program files\\marmalade\\6.3\\s3e\\makefile_builder\\plugins\\null.pyc'
p154
F1369762920.0
sS'i:\\program files\\marmalade\\6.3\\s3e\\makefile_builder\\plugins\\s3e_make.pyc'
p155
F1369762920.0
sS'i:\\program files\\marmalade\\6.3\\s3e\\makefile_builder\\templates\\xcode4.xcscheme'
p156
F1369749906.0
sS'i:\\program files\\marmalade\\6.3\\s3e\\makefile_builder\\templates\\wp8_csproj.pyc'
p157
F1369762922.0
sS'i:\\program files\\marmalade\\6.3\\s3e\\makefile_builder\\plugins\\XcodeEmitter.py'
p158
F1369749904.0
sS'i:\\program files\\marmalade\\6.3\\s3e\\makefile_builder\\plugins\\s3e_vc6.pyc'
p159
F1369762920.0
sS'i:\\program files\\marmalade\\6.3\\s3e\\makefile_builder\\plugins'
p160
F1370640446.46875
sS'i:\\program files\\marmalade\\6.3\\s3e\\makefile_builder\\docs\\mkb.defines.txt'
p161
F1369749904.0
sS'i:\\program files\\marmalade\\6.3\\s3e\\makefile_builder\\plugins\\s3e_wp8.pyc'
p162
F1369762920.0
sS'i:\\program files\\marmalade\\6.3\\s3e\\makefile_builder\\plugins\\s3e_scons.pyc'
p163
F1369762920.0
sS'i:\\program files\\marmalade\\6.3\\s3e\\makefile_builder\\templates\\win32_vcxproj.pyc'
p164
F1369762922.0
sS'i:\\program files\\marmalade\\6.3\\s3e\\makefile_builder\\extensions'
p165
F1370640102.390625
sS'i:\\program files\\marmalade\\6.3\\s3e\\makefile_builder\\plugins\\deploy.pyc'
p166
F1369762920.0
sS'i:\\program files\\marmalade\\6.3\\s3e\\makefile_builder\\plugins\\linux_scons.pyc'
p167
F1369762920.0
sS'i:\\program files\\marmalade\\6.3\\s3e\\makefile_builder\\templates\\linker_script'
p168
F1369749906.0
sS'i:\\program files\\marmalade\\6.3\\s3e\\makefile_builder\\plugins\\vc6_utils.pyc'
p169
F1369762920.0
sS'i:\\program files\\marmalade\\6.3\\s3e\\makefile_builder\\templates\\vc6_opt.pyc'
p170
F1369762920.0
sS'i:\\program files\\marmalade\\6.3\\s3e\\makefile_builder\\templates\\qmake.py'
p171
F1369749906.0
sS'i:\\program files\\marmalade\\6.3\\s3e\\makefile_builder\\templates\\wp8_sln.pyc'
p172
F1369762922.0
sS'i:\\program files\\marmalade\\6.3\\s3e\\makefile_builder\\plugins\\java.pyc'
p173
F1369762920.0
sS'i:\\program files\\marmalade\\6.3\\s3e\\makefile_builder\\mkb_launcher.exe'
p174
F1369752952.0
sS'i:\\program files\\marmalade\\6.3\\s3e\\makefile_builder\\plugins\\S3EEmitter.pyc'
p175
F1369762920.0
sS'i:\\program files\\marmalade\\6.3\\s3e\\makefile_builder\\templates\\win32_dsp.pyc'
p176
F1369762920.0
sS'i:\\program files\\marmalade\\6.3\\s3e\\makefile_builder\\mkb.py'
p177
F1369749904.0
sS'i:\\program files\\marmalade\\6.3\\s3e\\makefile_builder\\templates\\Info.plist'
p178
F1369749906.0
sS'i:\\program files\\marmalade\\6.3\\s3e\\makefile_builder\\docs\\deployment_options.txt'
p179
F1369749904.0
sS'i:\\program files\\marmalade\\6.3\\s3e\\makefile_builder\\templates\\vc8_user.pyc'
p180
F1369762922.0
sS'i:\\program files\\marmalade\\6.3\\s3e\\makefile_builder\\templates\\mips_linker_script'
p181
F1369749906.0
sS'i:\\program files\\marmalade\\6.3\\s3e\\makefile_builder\\plugins\\iphone.pyc'
p182
F1369762920.0
sS'i:\\program files\\marmalade\\6.3\\s3e\\makefile_builder\\plugins\\wp8_wp8.pyc'
p183
F1369762920.0
sS'i:\\program files\\marmalade\\6.3\\s3e\\makefile_builder\\tool_launcher.exe'
p184
F1369752954.0
sS'i:\\program files\\marmalade\\6.3\\s3e\\makefile_builder\\plugins\\osx_xcode.pyc'
p185
F1369762920.0
sS'i:\\program files\\marmalade\\6.3\\s3e\\makefile_builder\\mkb_globals.pyc'
p186
F1369762920.0
sS'i:\\program files\\marmalade\\6.3\\s3e\\makefile_builder\\templates\\xcode.py'
p187
F1369749906.0
sS'i:\\program files\\marmalade\\6.3\\s3e\\makefile_builder\\docs\\deprecated.options.txt'
p188
F1369749904.0
sS'i:\\program files\\marmalade\\6.3\\s3e\\makefile_builder\\templates\\MainWindow.xib'
p189
F1369749906.0
sS'i:\\program files\\marmalade\\6.3\\s3e\\makefile_builder\\plugins\\xcode4_schememanagement.pyc'
p190
F1370640446.359375
sS'i:\\program files\\marmalade\\6.3\\s3e\\makefile_builder\\mkb_util.pyc'
p191
F1369762920.0
sS'i:\\program files\\marmalade\\6.3\\s3e\\makefile_builder\\templates\\vc7_suo.pyc'
p192
F1369762922.0
sS'i:\\program files\\marmalade\\6.3\\s3e\\makefile_builder\\templates\\xcode_pbxuser.py'
p193
F1369749906.0
sS'i:\\program files\\marmalade\\6.3\\s3e\\makefile_builder\\templates\\win32_vcproj.pyc'
p194
F1369762922.0
sS'i:\\program files\\marmalade\\6.3\\s3e\\makefile_builder\\plugins\\osx_scons.pyc'
p195
F1369762920.0
sS'i:\\program files\\marmalade\\6.3\\s3e\\makefile_builder\\plugins\\Emitter.pyc'
p196
F1369762920.0
sS'i:\\program files\\marmalade\\6.3\\s3e\\makefile_builder\\deployment.pyc'
p197
F1369762920.0
sS'i:\\program files\\marmalade\\6.3\\s3e\\makefile_builder\\plugins\\win32_vc6.pyc'
p198
F1369762920.0
sS'i:\\program files\\marmalade\\6.3\\s3e\\makefile_builder\\plugins\\XcodeEmitter.pyc'
p199
F1370640446.34375
sS'i:\\program files\\marmalade\\6.3\\s3e\\makefile_builder\\plugins\\xcode4_schememanagement.py'
p200
F1369749906.0
sS'i:\\program files\\marmalade\\6.3\\s3e\\makefile_builder\\plugins\\s3e_xcode.py'
p201
F1369749906.0
sS'i:\\program files\\marmalade\\6.3\\s3e\\makefile_builder\\templates\\wp8_csproj_user.pyc'
p202
F1369762922.0
sS'i:\\program files\\marmalade\\6.3\\s3e\\makefile_builder\\mkb_option.pyc'
p203
F1369762920.0
sS'i:\\program files\\marmalade\\6.3\\s3e\\makefile_builder\\templates\\win32_vcxproj_filters.pyc'
p204
F1369762922.0
sS'i:\\program files\\marmalade\\6.3\\s3e\\makefile_builder\\plugins\\VisualStudioEmitter.pyc'
p205
F1369762920.0
sS'i:\\program files\\marmalade\\6.3\\s3e\\makefile_builder\\plugins\\s3e_qmake.py'
p206
F1369749906.0
sS'i:\\program files\\marmalade\\6.3\\s3e\\makefile_builder\\extensions\\make_dist.py'
p207
F1369749904.0
sccopy_reg
_reconstructor
p208
(cmkb_main
MkbFile
p209
c__builtin__
object
p210
Ntp211
Rp212
(dp213
g3
(lp214
sS'target_name'
p215
S'i:/Program Files/Marmalade/6.3/examples/EDK/MacAddress/lib/win32/MacAddress.dll'
p216
sS'current_file'
p217
g88
sS'package_path'
p218
(lp219
sS'post_build'
p220
(lp221
sS'librarys'
p222
(lp223
g208
(cmkb_main
Library
p224
g210
Ntp225
Rp226
(dp227
S'name'
p228
S'edk.lib'
p229
sS'expand_name'
p230
I01
sS'include_spec_rvct_objs'
p231
(lp232
sS'include_all_objs'
p233
NsS'share_arm'
p234
NsS'arch'
p235
NsS'nodebug'
p236
I00
sg23
Nsbag208
(g224
g210
Ntp237
Rp238
(dp239
g228
S'User32.lib'
p240
sg230
I00
sg231
g232
sg233
Nsg234
Nsg235
Nsg236
I00
sg23
Nsbag208
(g224
g210
Ntp241
Rp242
(dp243
g228
S'iphlpapi.lib'
p244
sg230
I00
sg231
g232
sg233
Nsg234
Nsg235
Nsg236
I00
sg23
NsbasS'library_paths'
p245
(lp246
g208
(cmkb_main
LibraryPath
p247
g210
Ntp248
Rp249
(dp250
S'expand_path'
p251
I01
sS'add_cpu_variant'
p252
I00
sg228
S'i:/program files/marmalade/6.3/s3e/edk/lib/win32'
p253
sbasS'macros'
p254
(dp255
S'IW_TRACE_CHANNEL_MACADDRESS_VERBOSE'
p256
S'2'
p257
sS'IW_MKF_MACADDRESS_BUILD'
p258
NsS'_DEBUG'
p259
NsS'I3D_PLATFORM_WIN32'
p260
NsS'IW_SDK'
p261
NsS'S3E_EXT_MACADDRESS'
p262
NsS'IW_ASSERTION_CHANNEL_MACADDRESS'
p263
S'1'
p264
sS'IW_USE_ASSERTIONS'
p265
NsS'IW_TRACE_CHANNEL_MACADDRESS'
p266
g264
sS'I3D_OS_WINDOWS'
p267
NsS'WIN32'
p268
NsS'S3E_BUILD_EXT'
p269
NsS'I3D_ARCH_X86'
p270
NsS'NDEBUG'
p271
NsS'IW_MKF_EDK'
p272
NsS'IW_PLATFORM_WIN32'
p273
NsS'IW_DEBUG'
p274
NsS'IW_USE_TRACING'
p275
NsS'_WINDOWS'
p276
NssS'done_warnings'
p277
(dp278
sS'subprojects'
p279
(dp280
g118
S'MacAddress_build'
p281
sg119
S'i:\\program files\\marmalade\\6.3/s3e/edk'
p282
ssS'deployments'
p283
(dp284
S'Default'
p285
g208
(cdeployment
Deployment
p286
g210
Ntp287
Rp288
(dp289
S'got_version'
p290
I0
sS'assets'
p291
g285
sS'mkb'
p292
g212
sS'target'
p293
Nsg235
(lp294
sS'options'
p295
(dp296
S'iphone-link-lib'
p297
(lp298
sS'game-icf'
p299
NsS'symbian-run-on-install'
p300
NsS'iphone-icon-high-res'
p301
NsS'win32-pref-windowposy'
p302
NsS'win32-pref-windowposx'
p303
NsS'bada-appsecret'
p304
NsS'roku-requires-audiometadata'
p305
NsS'playbook-author'
p306
NsS'winmobile-icon32'
p307
NsS'linux-ext-lib'
p308
(lp309
sS'target-folder'
p310
NsS'iphone-splashscreen-landscape'
p311
NsS'wp8-exclude-720p'
p312
NsS'psp-discversion'
p313
NsS'lgtv-use-drm'
p314
NsS'nds-bannertitle-sp'
p315
NsS'symbian-platsecflags'
p316
NsS'psp-producer'
p317
NsS'blackberry-playbook-icon'
p318
NsS'iphone-icon-ipad-search-high-res'
p319
NsS'iphone-provisioning-profile'
p320
NsS'copyright'
p321
NsS'android-extra-application-manifest'
p322
(lp323
sS'winmobile-png45'
p324
NsS'iphone-link-libdir'
p325
(lp326
sS'symbian-cert'
p327
NsS'nds-bannertitle-hn'
p328
NsS'brew-depends'
p329
NsS'wp8-author'
p330
NsS'winmobile-nouninstall'
p331
NsS'android-icon-hdpi'
p332
NsS'iphone-ipad-only'
p333
NsS'iphone-splash-full-orient'
p334
NsS'wp8-tile-fliptemplate-supports-large'
p335
NsS'iphone-bundle-url-name'
p336
NsS'wp8-tile-fliptemplate-large-front-image'
p337
NsS'android-aliasname'
p338
NsS'iphone-splash-retina-generate'
p339
NsS'psp-dlgmanual'
p340
NsS'iphone-backgroundmode-audio'
p341
NsS'android-pkgname'
p342
NsS'webos-memory'
p343
NsS'brew-uid'
p344
NsS'android-keypass'
p345
NsS'symbian-locationsupport'
p346
NsS'wp8-tile-fliptemplate-large-back-content'
p347
NsS'iphone-signing-host'
p348
NsS'nds-bannertitle-jp'
p349
NsS'name'
p350
NsS'iphone-link-libdirs'
p351
(lp352
sS'osx-info-plist'
p353
NsS'symbian-icon1-format'
p354
NsS'uiq3-uid'
p355
NsS'psp-dlgcontentid'
p356
NsS'roku-splash-screen-sd'
p357
NsS'auto-derbh'
p358
NsS'bada-use-partner-privileges'
p359
NsS'nds-bannertitle-it'
p360
NsS'roku-icon-side-sd'
p361
NsS'blackberry-authorid'
p362
NsS'nds-publicsavedatasize'
p363
NsS'splashscreen'
p364
NsS'brew-mif'
p365
NsS'symbian-icon2-format'
p366
NsS'long-caption'
p367
NsS'iphone-icon-settings-high-res'
p368
NsS'uiq3-icon1-mask'
p369
NsS'iphone-development-cert'
p370
NsS'winmobile-icon16'
p371
NsS's3e-compression'
p372
NsS'wp8-description'
p373
NsS'iphone-link-opts'
p374
(lp375
sS'wp8-tile-fliptemplate-back-content'
p376
NsS'iphone-region'
p377
NsS'uiq3-icon3-mask'
p378
NsS'winmobile-start-menu-folder'
p379
NsS'roku-splash-min-time'
p380
NsS'brew-encoding'
p381
NsS'roku-requires-bluetooth'
p382
NsS'symbian-icon1'
p383
NsS'symbian-icon2'
p384
NsS'psp-parentallevel'
p385
NsS'wp8-tile-fliptemplate-medium-front-image'
p386
NsS'wp8-tile-fliptemplate-large-back-image'
p387
NsS'version'
p388
NsS'caption'
p389
NsS'bada-manifest'
p390
NsS'provider'
p391
NsS'iphone-prerendered-icon'
p392
NsS'iphone-appid'
p393
NsS'playbook-keystore'
p394
NsS'nds-initialcode'
p395
NsS'priv-sign-key'
p396
NsS'android-external-jars'
p397
(lp398
sS'blackberry-cskpass'
p399
NsS'iphone-persistent-wifi'
p400
NsS'symbian7-uid'
p401
NsS'winmobile-setup-dll'
p402
NsS'wp8-exclude-wvga'
p403
NsS'symbian-osexecsupport'
p404
NsS'android-install-location'
p405
NsS'olddeploytoolstyle'
p406
NsS'nds-privatesavedatasize'
p407
NsS'symbian9-uid'
p408
NsS'nds-bannertitle-cn'
p409
NsS'winmobile-trace-file'
p410
NsS'roku-splash-color'
p411
NsS'roku-icon-focus-hd'
p412
NsS'android-icon-ldpi'
p413
NsS'iphone-distribution-key'
p414
NsS'networking'
p415
NsS'winmobile-install-folder'
p416
NsS'android-external-res'
p417
(lp418
sS'winmobile-ampd-part-number'
p419
NsS'android-icon-gallery'
p420
NsS'bada-signed'
p421
NsS'android-supports-gl-texture'
p422
(lp423
sS'iphone-apple-wwdr-cert'
p424
NsS'psp-snd0'
p425
NsS'iphone-extra-sections'
p426
NsS'blackberry-keystore'
p427
NsS'iphone-nosign'
p428
NsS'brew-priviledges'
p429
NsS'psp-icon1'
p430
NsS'iphone-icon-large'
p431
NsS'android-storepass'
p432
NsS'playbook-storepass'
p433
NsS'iphone-info-plist'
p434
NsS'wp8-product-id'
p435
NsS'android-extra-manifest'
p436
(lp437
sS'wp8-exclude-low-mem'
p438
NsS'android-custom-activity'
p439
NsS'version-minor'
p440
NsS'iphone-icon-ipad'
p441
NsS'bada-appid'
p442
NsS'psp-appversion'
p443
NsS'roku-hidden'
p444
NsS'psp-copyright'
p445
NsS'symbian-maxheapsize'
p446
NsS'embed-icf'
p447
NsS'psp-titlename'
p448
NsS'symbian-icon1-mask'
p449
NsS'nds-makercode'
p450
NsS'symbian8-uid'
p451
NsS'webos-appinfo'
p452
NsS'symbian-cert-key'
p453
NsS'android-icon'
p454
NsS'webos-appid'
p455
NsS'android-icon-nonstandard'
p456
NsS'roku-icon-side-hd'
p457
NsS'iphone-icon-settings'
p458
NsS'wp8-tile-fliptemplate-medium-back-image'
p459
NsS'iphone-distribution-cert'
p460
NsS'osx-icon'
p461
NsS'nds-titlename'
p462
NsS'splashscreen-auto-onblack'
p463
NsS'manufacturer'
p464
NsS'nds-romheadertemplate'
p465
NsS'webos-icon'
p466
NsS'nds-bannertitle-en'
p467
NsS'win32-ext-dll'
p468
(lp469
sS'psp-dlgicon0'
p470
NsS'iphone-development-key'
p471
NsS'psp-discid'
p472
NsS'winmobile-icon48'
p473
NsS'android-manifest'
p474
NsS'playbook-cskpass'
p475
NsS'android-so'
p476
(lp477
sS'wp8-higher-mem'
p478
NsS'bada-splash'
p479
NsS'version-revision'
p480
NsS'roku-icon-focus-sd'
p481
NsS'android-icon-mdpi'
p482
NsS'android-keystore'
p483
NsS'osx-ext-dll'
p484
(lp485
sS'version-string'
p486
NsS'winmobile-png90'
p487
NsS'roku-splash-screen-hd'
p488
NsS'iphone-icon-ipad-high-res'
p489
NsS'iphone-disable-ipad'
p490
NsS'uiq3-icon1-format'
p491
NsS'iphone-bundle-url-schemes'
p492
NsS'nds-icon'
p493
NsS'roku-screensaver-private'
p494
NsS'wp8-tile-fliptemplate-small-image'
p495
NsS'winmobile-png60'
p496
NsS'playbook-authorid'
p497
NsS'iphone-icon-ipad-search'
p498
NsS'android_extra_strings'
p499
NsS'playbook-icon'
p500
NsS'uid'
p501
NsS'icon'
p502
NsS'iphone-signing-identity'
p503
NsS'brew-icon-medium'
p504
NsS'roku-persist-quota'
p505
NsS'winmobile-icon64'
p506
NsS'blackberry-phone-icon'
p507
NsS'iphone-enable-4inch-retina'
p508
NsS'pkguid-as-uid'
p509
NsS'symbian-icon1-mask-black'
p510
NsS'uiq3-icon2'
p511
NsS'uiq3-icon2-format'
p512
NsS'pub-sign-key'
p513
NsS'nds-bannertitle-fr'
p514
NsS'win32-pref-windowtitle'
p515
NsS'symbian-disable-ecompxl'
p516
NsS'psp-dlgprotectdocument'
p517
NsS'symbian-soundrecordsupport'
p518
NsS'splashscreen-use-all'
p519
NsS'roku-screensaver-title'
p520
NsS'brew-clsid'
p521
NsS'wp8-genre-isgame'
p522
NsS'brew-icon-small'
p523
NsS'psp-dlgpic2'
p524
NsS'bada-icon'
p525
NsS'psp-dlgpic0'
p526
NsS'lgtv_l9-use-drm'
p527
NsS'psp-pic0'
p528
NsS'psp-pic1'
p529
NsS'iphone-icon'
p530
NsS'psp-icon0'
p531
NsS'blackberry-permissions-access-shared'
p532
NsS'uiq3-icon3-format'
p533
NsS'version-major'
p534
NsS'iphone_bundle_localisations'
p535
NsS'winmobile-icon'
p536
NsS'roku-requires-mkv'
p537
NsS'blackberry-author'
p538
NsS'symbian-keypwd'
p539
NsS'iphone-no-splash'
p540
NsS'playbook-access-shared'
p541
NsS'psp-dlghealthwarning'
p542
NsS'iphone-link-libs'
p543
(lp544
sS'wp8-custom-manifest'
p545
NsS'iphone-splash'
p546
NsS'nds-bannertitle-ge'
p547
NsS'android_icon_gallery'
p548
NsS'brew-icon-large'
p549
NsS'iphone-app-fonts'
p550
NsS'symbian-icon2-mask'
p551
NsS'iphone-sign-for-distribution'
p552
NsS'android-unsigned'
p553
NsS'arch'
p554
NsS'uiq3-icon3'
p555
NsS'wp8-publisher-id'
p556
NsS'uiq3-icon1'
p557
NsS'itunes-artwork'
p558
NsS'android-x86'
p559
NsS'win32-icon'
p560
NsS'assets'
p561
NsS'symbian-key'
p562
NsS'app-icf'
p563
NsS'blackberry-storepass'
p564
NsS'winmobile-cab-compress'
p565
NsS'wp8-tile-fliptemplate-back-title'
p566
NsS'wp8-custom-manifest-fill'
p567
NsS'wp8-exclude-wxga'
p568
NsS'brew-compress-loader'
p569
NsS'wp8-tile-fliptemplate-title'
p570
NsS'uiq3-icon2-mask'
p571
NsS'symbian-icon2-mask-black'
p572
NsS'symbian-icon-svg'
p573
NsS'android-extra-strings'
p574
NsS'iphone-splashscreen-portrait'
p575
NsS'iphone-bundle-localisations'
p576
Nssg228
g285
sbssS'platform'
p577
S'WIN32'
p578
sg45
S'1.0'
p579
sS'arcade_platform'
p580
g2
sS'extensions'
p581
(dp582
sS'source_groups_tree'
p583
(dp584
S'edk'
p585
(dp586
S'h'
p587
(dp588
S'i:/program files/marmalade/6.3/s3e/edk/h/s3eEdk_iphone.h'
p589
(lp590
I1
a(dp591
asS'i:/program files/marmalade/6.3/s3e/edk/h/s3eEdk.h'
p592
(lp593
I1
ag591
asS'i:/program files/marmalade/6.3/s3e/edk/h/s3eEdk_windows.h'
p594
(lp595
I1
ag591
asS'i:/program files/marmalade/6.3/s3e/edk/h/s3eEdkError.h'
p596
(lp597
I1
ag591
asS'i:/program files/marmalade/6.3/s3e/edk/h/s3eEdk_android.h'
p598
(lp599
I1
ag591
assS'S3E API'
p600
(dp601
S'i:/program files/marmalade/6.3/s3e/h/MarmaladeVersion.h'
p602
(lp603
I1
ag591
asS'i:/program files/marmalade/6.3/s3e/h/s3eTimer.h'
p604
(lp605
I1
ag591
asS'i:/program files/marmalade/6.3/s3e/h/s3eSurface.h'
p606
(lp607
I1
ag591
asS'i:/program files/marmalade/6.3/s3e/h/s3eDebug.h'
p608
(lp609
I1
ag591
asS'i:/program files/marmalade/6.3/s3e/h/s3eLocation.h'
p610
(lp611
I1
ag591
asS'i:/program files/marmalade/6.3/s3e/h/s3eVibra.h'
p612
(lp613
I1
ag591
asS'i:/program files/marmalade/6.3/s3e/h/s3eAccelerometer.h'
p614
(lp615
I1
ag591
asS'i:/program files/marmalade/6.3/s3e/h/s3eMemory.h'
p616
(lp617
I1
ag591
asS'i:/program files/marmalade/6.3/s3e/h/s3eKeyboard.h'
p618
(lp619
I1
ag591
asS'i:/program files/marmalade/6.3/s3e/h/s3eCompression.h'
p620
(lp621
I1
ag591
asS'i:/program files/marmalade/6.3/s3e/h/s3eCrypto.h'
p622
(lp623
I1
ag591
asS'i:/program files/marmalade/6.3/s3e/h/s3eDevice.h'
p624
(lp625
I1
ag591
asS'i:/program files/marmalade/6.3/s3e/h/s3eAudio.h'
p626
(lp627
I1
ag591
asS'i:/program files/marmalade/6.3/s3e/h/s3eThread.h'
p628
(lp629
I1
ag591
asS'i:/program files/marmalade/6.3/s3e/h/s3eSocket.h'
p630
(lp631
I1
ag591
asS'i:/program files/marmalade/6.3/s3e/h/s3eLicense.h'
p632
(lp633
I1
ag591
asS'i:/program files/marmalade/6.3/s3e/h/s3eVersion.h'
p634
(lp635
I1
ag591
asS'i:/program files/marmalade/6.3/s3e/h/s3eSecureStorage.h'
p636
(lp637
I1
ag591
asS'i:/program files/marmalade/6.3/s3e/h/s3eCamera.h'
p638
(lp639
I1
ag591
asS'i:/program files/marmalade/6.3/s3e/h/s3eExt.h'
p640
(lp641
I1
ag591
asS'i:/program files/marmalade/6.3/s3e/h/s3ePointer.h'
p642
(lp643
I1
ag591
asS'i:/program files/marmalade/6.3/s3e/h/s3eFile.h'
p644
(lp645
I1
ag591
asS'i:/program files/marmalade/6.3/s3e/h/s3e.h'
p646
(lp647
I1
ag591
asS'i:/program files/marmalade/6.3/s3e/h/s3eSoundRecord.h'
p648
(lp649
I1
ag591
asS'i:/program files/marmalade/6.3/s3e/h/s3eSound.h'
p650
(lp651
I1
ag591
asS'i:/program files/marmalade/6.3/s3e/h/s3eContacts.h'
p652
(lp653
I1
ag591
asS'i:/program files/marmalade/6.3/s3e/h/s3eHash.h'
p654
(lp655
I1
ag591
asS'i:/program files/marmalade/6.3/s3e/h/s3eConfig.h'
p656
(lp657
I1
ag591
asS'i:/program files/marmalade/6.3/s3e/h/s3eCompass.h'
p658
(lp659
I1
ag591
asS'i:/program files/marmalade/6.3/s3e/h/s3eGL.h'
p660
(lp661
I1
ag591
asS'i:/program files/marmalade/6.3/s3e/h/s3eVideo.h'
p662
(lp663
I1
ag591
asS'i:/program files/marmalade/6.3/s3e/h/s3eClipboard.h'
p664
(lp665
I1
ag591
asS'i:/program files/marmalade/6.3/s3e/h/s3eTypes.h'
p666
(lp667
I1
ag591
asS'i:/program files/marmalade/6.3/s3e/h/AirplayVersion.h'
p668
(lp669
I1
ag591
assS'i:/program files/marmalade/6.3/s3e/edk/edk.mkf'
p670
(lp671
I1
a(dp672
assS'Extensions'
p673
(dp674
S'MacAddress'
p675
(dp676
S'i:/program files/marmalade/6.3/s3e/edk/builder/edk_build.py'
p677
(lp678
I1
a(lp679
asS'docs'
p680
(dp681
S'i:/program files/marmalade/6.3/examples/edk/macaddress/interface/MacAddress.defines.txt'
p682
(lp683
I1
a(dp684
assS'source'
p685
(dp686
S'i:/program files/marmalade/6.3/examples/edk/macaddress/source/generic/MacAddress.cpp'
p687
(lp688
I1
ag684
asS'i:/program files/marmalade/6.3/examples/edk/macaddress/source/windows/MacAddress_platform.cpp'
p689
(lp690
I1
ag684
asS'i:/program files/marmalade/6.3/examples/edk/macaddress/source/generic/MacAddress_register.cpp'
p691
(lp692
I1
ag684
assS'i:/program files/marmalade/6.3/examples/edk/macaddress/MacAddress.s4e'
p693
(lp694
I1
ag684
asg587
(dp695
S'i:/program files/marmalade/6.3/examples/edk/macaddress/source/h/MacAddress_internal.h'
p696
(lp697
I1
ag684
asS'i:/program files/marmalade/6.3/examples/edk/macaddress/source/h/MacAddress_autodefs.h'
p698
(lp699
I1
ag684
assS'i:/program files/marmalade/6.3/examples/edk/macaddress/macaddress_build.mkf'
p700
(lp701
I1
a(dp702
assssS'files'
p703
(dp704
S's3eDevice.h'
p705
g208
(cmkb_main
File
p706
g210
Ntp707
Rp708
(dp709
S'flags'
p710
g591
sS'group'
p711
(lp712
g585
ag600
asg228
g624
sbsS'MacAddress.s4e'
p713
g208
(g706
g210
Ntp714
Rp715
(dp716
g710
g684
sg711
(lp717
g673
ag675
asg228
g693
sbsS's3eThread.h'
p718
g208
(g706
g210
Ntp719
Rp720
(dp721
g710
g591
sg711
g712
sg228
g628
sbsS's3eCompass.h'
p722
g208
(g706
g210
Ntp723
Rp724
(dp725
g710
g591
sg711
g712
sg228
g658
sbsS's3eCompression.h'
p726
g208
(g706
g210
Ntp727
Rp728
(dp729
g710
g591
sg711
g712
sg228
g620
sbsS's3eEdk_iphone.h'
p730
g208
(g706
g210
Ntp731
Rp732
(dp733
g710
g591
sg711
(lp734
g585
ag587
asg228
g589
sbsS'AirplayVersion.h'
p735
g208
(g706
g210
Ntp736
Rp737
(dp738
g710
g591
sg711
g712
sg228
g668
sbsS's3eTimer.h'
p739
g208
(g706
g210
Ntp740
Rp741
(dp742
g710
g591
sg711
g712
sg228
g604
sbsS's3e.h'
p743
g208
(g706
g210
Ntp744
Rp745
(dp746
g710
g591
sg711
g712
sg228
g646
sbsS's3eSoundRecord.h'
p747
g208
(g706
g210
Ntp748
Rp749
(dp750
g710
g591
sg711
g712
sg228
g648
sbsS's3eConfig.h'
p751
g208
(g706
g210
Ntp752
Rp753
(dp754
g710
g591
sg711
g712
sg228
g656
sbsS's3eVibra.h'
p755
g208
(g706
g210
Ntp756
Rp757
(dp758
g710
g591
sg711
g712
sg228
g612
sbsS's3eExt.h'
p759
g208
(g706
g210
Ntp760
Rp761
(dp762
g710
g591
sg711
g712
sg228
g640
sbsS'MacAddress.defines.txt'
p763
g208
(g706
g210
Ntp764
Rp765
(dp766
g710
g684
sg711
(lp767
g673
ag675
ag680
asg228
g682
sbsS's3eVersion.h'
p768
g208
(g706
g210
Ntp769
Rp770
(dp771
g710
g591
sg711
g712
sg228
g634
sbsS'MarmaladeVersion.h'
p772
g208
(g706
g210
Ntp773
Rp774
(dp775
g710
g591
sg711
g712
sg228
g602
sbsS's3eSound.h'
p776
g208
(g706
g210
Ntp777
Rp778
(dp779
g710
g591
sg711
g712
sg228
g650
sbsS's3eAudio.h'
p780
g208
(g706
g210
Ntp781
Rp782
(dp783
g710
g591
sg711
g712
sg228
g626
sbsS's3eEdk_android.h'
p784
g208
(g706
g210
Ntp785
Rp786
(dp787
g710
g591
sg711
g734
sg228
g598
sbsS's3ePointer.h'
p788
g208
(g706
g210
Ntp789
Rp790
(dp791
g710
g591
sg711
g712
sg228
g642
sbsS's3eCamera.h'
p792
g208
(g706
g210
Ntp793
Rp794
(dp795
g710
g591
sg711
g712
sg228
g638
sbsS'macaddress_build.mkf'
p796
g208
(g706
g210
Ntp797
Rp798
(dp799
g710
g702
sg711
(lp800
g673
ag675
asg228
g700
sbsS'MacAddress_register.cpp'
p801
g208
(g706
g210
Ntp802
Rp803
(dp804
g710
g684
sg711
(lp805
g673
ag675
ag685
asg228
g691
sbsS's3eEdk.h'
p806
g208
(g706
g210
Ntp807
Rp808
(dp809
g710
g591
sg711
g734
sg228
g592
sbsS's3eSurface.h'
p810
g208
(g706
g210
Ntp811
Rp812
(dp813
g710
g591
sg711
g712
sg228
g606
sbsS's3eAccelerometer.h'
p814
g208
(g706
g210
Ntp815
Rp816
(dp817
g710
g591
sg711
g712
sg228
g614
sbsS's3eMemory.h'
p818
g208
(g706
g210
Ntp819
Rp820
(dp821
g710
g591
sg711
g712
sg228
g616
sbsS's3eLicense.h'
p822
g208
(g706
g210
Ntp823
Rp824
(dp825
g710
g591
sg711
g712
sg228
g632
sbsS'MacAddress_autodefs.h'
p826
g208
(g706
g210
Ntp827
Rp828
(dp829
g710
g684
sg711
(lp830
g673
ag675
ag587
asg228
g698
sbsS's3eCrypto.h'
p831
g208
(g706
g210
Ntp832
Rp833
(dp834
g710
g591
sg711
g712
sg228
g622
sbsS's3eKeyboard.h'
p835
g208
(g706
g210
Ntp836
Rp837
(dp838
g710
g591
sg711
g712
sg228
g618
sbsS's3eFile.h'
p839
g208
(g706
g210
Ntp840
Rp841
(dp842
g710
g591
sg711
g712
sg228
g644
sbsS's3eEdkError.h'
p843
g208
(g706
g210
Ntp844
Rp845
(dp846
g710
g591
sg711
g734
sg228
g596
sbsS'MacAddress.cpp'
p847
g208
(g706
g210
Ntp848
Rp849
(dp850
g710
g684
sg711
g805
sg228
g687
sbsS's3eSecureStorage.h'
p851
g208
(g706
g210
Ntp852
Rp853
(dp854
g710
g591
sg711
g712
sg228
g636
sbsS's3eLocation.h'
p855
g208
(g706
g210
Ntp856
Rp857
(dp858
g710
g591
sg711
g712
sg228
g610
sbsS'edk_build.py'
p859
g208
(g706
g210
Ntp860
Rp861
(dp862
g710
g679
sg711
g800
sg228
g677
sbsS's3eContacts.h'
p863
g208
(g706
g210
Ntp864
Rp865
(dp866
g710
g591
sg711
g712
sg228
g652
sbsS's3eHash.h'
p867
g208
(g706
g210
Ntp868
Rp869
(dp870
g710
g591
sg711
g712
sg228
g654
sbsS'MacAddress_platform.cpp'
p871
g208
(g706
g210
Ntp872
Rp873
(dp874
g710
g684
sg711
g805
sg228
g689
sbsS's3eClipboard.h'
p875
g208
(g706
g210
Ntp876
Rp877
(dp878
g710
g591
sg711
g712
sg228
g664
sbsS's3eGL.h'
p879
g208
(g706
g210
Ntp880
Rp881
(dp882
g710
g591
sg711
g712
sg228
g660
sbsS's3eEdk_windows.h'
p883
g208
(g706
g210
Ntp884
Rp885
(dp886
g710
g591
sg711
g734
sg228
g594
sbsS's3eDebug.h'
p887
g208
(g706
g210
Ntp888
Rp889
(dp890
g710
g591
sg711
g712
sg228
g608
sbsS'edk.mkf'
p891
g208
(g706
g210
Ntp892
Rp893
(dp894
g710
g672
sg711
(lp895
g585
asg228
g670
sbsS'MacAddress_internal.h'
p896
g208
(g706
g210
Ntp897
Rp898
(dp899
g710
g684
sg711
g830
sg228
g696
sbsS's3eVideo.h'
p900
g208
(g706
g210
Ntp901
Rp902
(dp903
g710
g591
sg711
g712
sg228
g662
sbsS's3eSocket.h'
p904
g208
(g706
g210
Ntp905
Rp906
(dp907
g710
g591
sg711
g712
sg228
g630
sbsS's3eTypes.h'
p908
g208
(g706
g210
Ntp909
Rp910
(dp911
g710
g591
sg711
g712
sg228
g666
sbssS'tests'
p912
(lp913
sS'project_name'
p914
S'MacAddress_windows'
p915
sS'root_file'
p916
g88
sS'current_root'
p917
S'i:/Program Files/Marmalade/6.3/examples/EDK/MacAddress'
p918
sS'dependencies'
p919
(lp920
sS'include_paths'
p921
(lp922
S'i:/program files/marmalade/6.3/examples/edk/macaddress/source/h'
p923
aS'i:/program files/marmalade/6.3/examples/edk/macaddress/h'
p924
aS'i:/program files/marmalade/6.3/s3e/edk/h'
p925
aS'i:/program files/marmalade/6.3/s3e/h'
p926
aS'i:/program files/marmalade/6.3/s3e/h/ext'
p927
aS'i:/program files/marmalade/6.3/modules/iwutil/h'
p928
aS'i:/program files/marmalade/6.3/modules/iwcore/h'
p929
asS'weak_frameworks'
p930
(lp931
sS'extprojects'
p932
(dp933
sg291
(dp934
g285
(lp935
ssS'macro_types'
p936
(dp937
g256
I0
sg258
I0
sg259
I1
sg260
I0
sg261
I0
sg262
I0
sg263
I0
sg265
I1
sg266
I0
sg267
I0
sg268
I0
sg269
I0
sg270
I0
sg271
I2
sg272
I0
sg273
I0
sg274
I01
sg275
I1
sg276
I0
ssS'commands'
p938
(lp939
sg293
(g578
S'VC10'
p940
S'X86'
p941
tp942
sS'subprojectOptions'
p943
(dp944
g297
(lp945
sg299
Nsg301
Nsg302
Nsg303
Nsg304
Nsg305
Nsg306
Nsg307
Nsg308
(lp946
sg310
Nsg441
Nsg314
Nsg315
Nsg316
Nsg317
Nsg318
Nsg319
Nsg320
Nsg321
Nsg324
Nsg325
(lp947
sg562
Nsg528
Nsg328
Nsg329
Nsg330
Nsg524
Nsg331
Nsg332
Nsg333
Nsg334
Nsg335
Nsg336
Nsg337
Nsg338
Nsg532
Nsg340
Nsg341
Nsg523
Nsg342
Nsg343
Nsg344
Nsg345
Nsg346
Nsg348
Nsg394
Nsg350
Nsg444
Nsg353
Nsg354
Nsg356
Nsg357
Nsg358
Nsg359
Nsg360
Nsg361
Nsg362
Nsg363
Nsg364
Nsg365
Nsg553
Nsg445
Nsg366
Nsg368
Nsg369
Nsg371
Nsg372
Nsg373
Nsg374
(lp948
sg376
Nsg377
Nsg378
Nsg379
Nsg380
Nsg381
Nsg382
Nsg383
Nsg384
Nsg450
Nsg386
Nsg388
Nsg390
Nsg391
Nsg392
Nsg393
Nsg349
Nsg395
Nsg451
Nsg404
Nsg399
Nsg400
Nsg401
Nsg402
Nsg403
Nsg397
(lp949
sg405
Nsg547
Nsg407
Nsg408
Nsg409
Nsg410
Nsg411
Nsg412
Nsg413
Nsg414
Nsg453
Nsg416
Nsg554
Nsg417
(lp950
sg454
Nsg420
Nsg548
Nsg422
(lp951
sg424
Nsg425
Nsg426
Nsg427
Nsg428
Nsg389
Nsg431
Nsg432
Nsg433
Nsg434
Nsg435
Nsg436
(lp952
sg438
Nsg439
Nsg440
Nsg575
Nsg313
Nsg442
Nsg443
Nsg546
Nsg351
(lp953
sg529
Nsg311
Nsg446
Nsg447
Nsg448
Nsg449
Nsg385
Nsg396
Nsg452
Nsg415
Nsg419
Nsg455
Nsg456
Nsg457
Nsg458
Nsg555
Nsg460
Nsg461
Nsg462
Nsg463
Nsg464
Nsg465
Nsg466
Nsg467
Nsg468
(lp954
sg470
Nsg471
Nsg472
Nsg473
Nsg474
Nsg475
Nsg476
(lp955
sg478
Nsg479
Nsg480
Nsg481
Nsg482
Nsg483
Nsg484
(lp956
sg486
Nsg487
Nsg488
Nsg489
Nsg490
Nsg491
Nsg492
Nsg493
Nsg494
Nsg507
Nsg370
Nsg509
Nsg498
Nsg499
Nsg500
Nsg501
Nsg510
Nsg504
Nsg505
Nsg572
Nsg506
Nsg322
(lp957
sg508
Nsg497
Nsg557
Nsg503
Nsg511
Nsg521
Nsg512
Nsg569
Nsg514
Nsg515
Nsg516
Nsg517
Nsg518
Nsg519
Nsg520
Nsg429
Nsg522
Nsg355
Nsg339
Nsg525
Nsg526
Nsg527
Nsg327
Nsg496
Nsg530
Nsg531
Nsg430
Nsg533
Nsg534
Nsg535
Nsg536
Nsg537
Nsg538
Nsg539
Nsg540
Nsg541
Nsg542
Nsg543
(lp958
sg545
Nsg347
Nsg406
Nsg421
Nsg549
Nsg550
Nsg551
Nsg552
Nsg367
Nsg312
Nsg459
Nsg556
Nsg502
Nsg558
Nsg559
Nsg560
Nsg561
Nsg387
Nsg563
Nsg564
Nsg565
Nsg566
Nsg567
Nsg568
Nsg513
Nsg570
Nsg571
Nsg495
Nsg573
Nsg574
Nsg300
Nsg576
NssS'build_libs'
p959
(dp960
sS'frameworks'
p961
(lp962
sS'environ'
p963
(dp964
S'EDK_BUILDER'
p965
S'i:\\program files\\marmalade\\6.3/s3e/edk/builder'
p966
ssS'target_name_debug'
p967
S'i:/Program Files/Marmalade/6.3/examples/EDK/MacAddress/lib/win32/MacAddress_d.dll'
p968
sS'builders'
p969
(dp970
S'.S'
p971
(dp972
S'rvct'
p973
(lp974
S'.obj'
p975
aS'echo ARM Assembling(RVCT) ${SOURCE}...'
p976
aS'i:/program files/marmalade/6.3/s3e\\rvct\\bin\\armasm -o ${TARGET} ${SOURCE}'
p977
asS'gcc'
p978
(lp979
g975
aS'echo ARM Assembling(GCC) ${SOURCE}...'
p980
aS'i:/program files/marmalade/6.3/s3e\\gcc\\bin\\arm-none-eabi-gcc -c -o ${TARGET} ${SOURCE}'
p981
asS'ppu'
p982
(lp983
S'.a'
p984
aS'echo PPU Assembling(SNC) ${SOURCE}...'
p985
aS'i:/program files/marmalade/6.3/s3e\\rvct\\bin\\armasm -o ${TARGET} ${SOURCE}'
p986
assS'.s'
p987
g972
ssg295
g0
sbtp988
.