(dp0
S'IW_TRACE_CHANNEL_MACADDRESS_VERBOSE'
p1
S'2'
p2
sS'IW_MKF_MACADDRESS_BUILD'
p3
NsS'_DEBUG'
p4
NsS'I3D_PLATFORM_WIN32'
p5
NsS'S3E_EXT_MACADDRESS'
p6
NsS'IW_SDK'
p7
NsS'IW_ASSERTION_CHANNEL_MACADDRESS'
p8
S'1'
p9
sS'IW_USE_ASSERTIONS'
p10
NsS'IW_USE_TRACING'
p11
NsS'WIN32'
p12
NsS'S3E_BUILD_EXT'
p13
NsS'I3D_ARCH_X86'
p14
NsS'IW_TRACE_CHANNEL_MACADDRESS'
p15
g9
sS'NDEBUG'
p16
NsS'IW_MKF_EDK'
p17
NsS'IW_PLATFORM_WIN32'
p18
NsS'IW_DEBUG'
p19
NsS'I3D_OS_WINDOWS'
p20
NsS'_WINDOWS'
p21
Ns.